target datalayout = "e-m:e-p270:32:32-p271:32:32-p272:64:64-i64:64-i128:128-f80:128-n8:16:32:64-S128"
target triple = "x86_64-pc-linux-gnu"

%class.AdapterHandlerEntry = type { ptr, ptr, ptr, ptr, ptr }

; Function Attrs: mustprogress nounwind uwtable
define hidden noundef ptr @_ZN19AdapterHandlerEntry12base_addressEv(ptr noundef nonnull align 8 dereferenceable(40) %0) #1 align 2 {
  %2 = alloca ptr, align 8
  %3 = alloca ptr, align 8
  store ptr %0, ptr %2, align 8
  %4 = load ptr, ptr %2, align 8
  %5 = getelementptr inbounds %class.AdapterHandlerEntry, ptr %4, i32 0, i32 1
  %6 = load ptr, ptr %5, align 8
  store ptr %6, ptr %3, align 8
  %7 = load ptr, ptr %3, align 8
  %8 = icmp eq ptr %7, null
  br i1 %8, label %9, label %12

9:                                                ; preds = %1
  %10 = getelementptr inbounds %class.AdapterHandlerEntry, ptr %4, i32 0, i32 2
  %11 = load ptr, ptr %10, align 8
  store ptr %11, ptr %3, align 8
  br label %12

12:                                               ; preds = %9, %1
  %13 = load ptr, ptr %3, align 8
  ret ptr %13
}